#include <math.h>
#include <stdio.h>
#include <stdlib.h>
#include <string.h>

int main()
{
	char a1[50],a2[50];
	int i,j,m=0;
	scanf("%s %s",a1,a2);
	for(i=0;a1[i]!='\0';i++){
		for(j=0;a2[j]!='\0';j++){
			if(a1[i]==a2[j]){
				printf("%d",j);
				m++;
			}
			if(m==1){
				break;
			}
		}
	}
	return 0;
}

