; ModuleID = 'source-C-CXX/44/1318.c'
source_filename = "source-C-CXX/44/1318.c"
target datalayout = "e-m:e-p270:32:32-p271:32:32-p272:64:64-i64:64-f80:128-n8:16:32:64-S128"
target triple = "x86_64-pc-linux-gnu"

@.str = private unnamed_addr constant [6 x i8] c"%s %s\00", align 1
@.str.1 = private unnamed_addr constant [3 x i8] c"%d\00", align 1

; Function Attrs: nofree nounwind sspstrong uwtable
define dso_local i32 @main() local_unnamed_addr #0 {
  %1 = alloca [50 x i8], align 16
  %2 = alloca [50 x i8], align 16
  %3 = getelementptr inbounds [50 x i8], [50 x i8]* %1, i64 0, i64 0
  call void @llvm.lifetime.start.p0i8(i64 50, i8* nonnull %3) #3
  %4 = getelementptr inbounds [50 x i8], [50 x i8]* %2, i64 0, i64 0
  call void @llvm.lifetime.start.p0i8(i64 50, i8* nonnull %4) #3
  %5 = call i32 (i8*, ...) @__isoc99_scanf(i8* getelementptr inbounds ([6 x i8], [6 x i8]* @.str, i64 0, i64 0), i8* nonnull %3, i8* nonnull %4)
  %6 = load i8, i8* %3, align 16, !tbaa !5
  %7 = icmp eq i8 %6, 0
  %8 = load i8, i8* %4, align 16
  %9 = icmp eq i8 %8, 0
  %10 = select i1 %7, i1 true, i1 %9
  br i1 %10, label %46, label %11

11:                                               ; preds = %0, %44
  %12 = phi i8 [ %42, %44 ], [ %6, %0 ]
  %13 = phi i8 [ %45, %44 ], [ %8, %0 ]
  %14 = phi i64 [ %40, %44 ], [ 0, %0 ]
  %15 = phi i8* [ %41, %44 ], [ %3, %0 ]
  %16 = phi i32 [ %39, %44 ], [ 0, %0 ]
  %17 = icmp eq i8 %13, 0
  br i1 %17, label %38, label %24

18:                                               ; preds = %34
  %19 = getelementptr inbounds [50 x i8], [50 x i8]* %2, i64 0, i64 %37
  %20 = load i8, i8* %19, align 1, !tbaa !5
  %21 = icmp eq i8 %20, 0
  br i1 %21, label %38, label %22, !llvm.loop !8

22:                                               ; preds = %18
  %23 = load i8, i8* %15, align 1, !tbaa !5
  br label %24

24:                                               ; preds = %11, %22
  %25 = phi i8 [ %23, %22 ], [ %12, %11 ]
  %26 = phi i64 [ %37, %22 ], [ 0, %11 ]
  %27 = phi i8 [ %20, %22 ], [ %13, %11 ]
  %28 = phi i32 [ %35, %22 ], [ %16, %11 ]
  %29 = icmp eq i8 %25, %27
  br i1 %29, label %30, label %34

30:                                               ; preds = %24
  %31 = trunc i64 %26 to i32
  %32 = call i32 (i8*, ...) @printf(i8* nonnull dereferenceable(1) getelementptr inbounds ([3 x i8], [3 x i8]* @.str.1, i64 0, i64 0), i32 %31)
  %33 = add nsw i32 %28, 1
  br label %34

34:                                               ; preds = %30, %24
  %35 = phi i32 [ %33, %30 ], [ %28, %24 ]
  %36 = icmp eq i32 %35, 1
  %37 = add nuw i64 %26, 1
  br i1 %36, label %38, label %18

38:                                               ; preds = %34, %18, %11
  %39 = phi i32 [ %16, %11 ], [ %35, %18 ], [ 1, %34 ]
  %40 = add nuw i64 %14, 1
  %41 = getelementptr inbounds [50 x i8], [50 x i8]* %1, i64 0, i64 %40
  %42 = load i8, i8* %41, align 1, !tbaa !5
  %43 = icmp eq i8 %42, 0
  br i1 %43, label %46, label %44, !llvm.loop !10

44:                                               ; preds = %38
  %45 = load i8, i8* %4, align 16, !tbaa !5
  br label %11

46:                                               ; preds = %38, %0
  call void @llvm.lifetime.end.p0i8(i64 50, i8* nonnull %4) #3
  call void @llvm.lifetime.end.p0i8(i64 50, i8* nonnull %3) #3
  ret i32 0
}

; Function Attrs: argmemonly mustprogress nofree nosync nounwind willreturn
declare void @llvm.lifetime.start.p0i8(i64 immarg, i8* nocapture) #1

; Function Attrs: nofree nounwind
declare noundef i32 @__isoc99_scanf(i8* nocapture noundef readonly, ...) local_unnamed_addr #2

; Function Attrs: nofree nounwind
declare noundef i32 @printf(i8* nocapture noundef readonly, ...) local_unnamed_addr #2

; Function Attrs: argmemonly mustprogress nofree nosync nounwind willreturn
declare void @llvm.lifetime.end.p0i8(i64 immarg, i8* nocapture) #1


!llvm.module.flags = !{!0, !1, !2, !3}
!llvm.ident = !{!4}

!0 = !{i32 1, !"wchar_size", i32 4}
!1 = !{i32 7, !"PIC Level", i32 2}
!2 = !{i32 7, !"PIE Level", i32 2}
!3 = !{i32 7, !"uwtable", i32 1}
!4 = !{!"clang version 13.0.0"}
!5 = !{!6, !6, i64 0}
!6 = !{!"omnipotent char", !7, i64 0}
!7 = !{!"Simple C/C++ TBAA"}
!8 = distinct !{!8, !9}
!9 = !{!"llvm.loop.mustprogress"}
!10 = distinct !{!10, !9, !11}
!11 = !{!"llvm.loop.unswitch.partial.disable"}
